target datalayout = "e-m:e-p270:32:32-p271:32:32-p272:64:64-i64:64-i128:128-f80:128-n8:16:32:64-S128"
target triple = "x86_64-pc-linux-gnu"

%struct.AVFilterContext = type { ptr, ptr, ptr, ptr, ptr, i32, ptr, ptr, i32, ptr, ptr, i32, i32, ptr, ptr, ptr, ptr, i32, ptr, i32, i32 }
%struct.ShowVolumeContext = type { ptr, i32, i32, i32, double, %struct.AVRational, ptr, i32, i32, float, i32, i32, ptr, ptr, i32, i32, ptr, ptr, ptr, i32, double, [4 x i8], i32, ptr, ptr, ptr }
%struct.AVRational = type { i32, i32 }
%struct.AVFilterFormatsConfig = type { ptr, ptr, ptr, ptr, ptr }
%struct.AVFilterLink = type { ptr, ptr, ptr, ptr, i32, i32, i32, i32, %struct.AVRational, i32, i32, i32, %struct.AVChannelLayout, %struct.AVRational, ptr, i32, %struct.AVFilterFormatsConfig, %struct.AVFilterFormatsConfig }
%struct.AVChannelLayout = type { i32, i32, %union.anon.1, ptr }
%union.anon.1 = type { i64 }
%struct.FilterLink = type { %struct.AVFilterLink, ptr, i64, i64, i32, i32, i64, i64, i64, i64, %struct.AVRational, ptr }

; Function Attrs: alwaysinline nounwind uwtable
define internal i64 @av_inv_q(i64 %0) #8 {
  %2 = alloca %struct.AVRational, align 4
  %3 = alloca %struct.AVRational, align 4
  store i64 %0, ptr %3, align 4
  %4 = getelementptr inbounds nuw %struct.AVRational, ptr %2, i32 0, i32 0
  %5 = getelementptr inbounds nuw %struct.AVRational, ptr %3, i32 0, i32 1
  %6 = load i32, ptr %5, align 4, !tbaa !75
  store i32 %6, ptr %4, align 4, !tbaa !74
  %7 = getelementptr inbounds nuw %struct.AVRational, ptr %2, i32 0, i32 1
  %8 = getelementptr inbounds nuw %struct.AVRational, ptr %3, i32 0, i32 0
  %9 = load i32, ptr %8, align 4, !tbaa !74
  store i32 %9, ptr %7, align 4, !tbaa !75
  %10 = load i64, ptr %2, align 4
  ret i64 %10
}

; Function Attrs: inlinehint nounwind uwtable
define internal ptr @ff_filter_link(ptr noundef %0) #5 {
  %2 = alloca ptr, align 8
  store ptr %0, ptr %2, align 8, !tbaa !42
  %3 = load ptr, ptr %2, align 8, !tbaa !42
  ret ptr %3
}

; Function Attrs: nounwind uwtable
define internal i32 @config_output(ptr noundef %0) #1 {
  %2 = alloca ptr, align 8
  %3 = alloca ptr, align 8
  %4 = alloca ptr, align 8
  %5 = alloca ptr, align 8
  %6 = alloca i32, align 4
  %7 = alloca %struct.AVRational, align 4
  %8 = alloca %struct.AVRational, align 4
  %9 = alloca i32, align 4
  %10 = alloca float, align 4
  store ptr %0, ptr %2, align 8, !tbaa !42
  call void @llvm.lifetime.start.p0(i64 8, ptr %3) #12
  %11 = load ptr, ptr %2, align 8, !tbaa !42
  %12 = call ptr @ff_filter_link(ptr noundef %11)
  store ptr %12, ptr %3, align 8, !tbaa !76
  call void @llvm.lifetime.start.p0(i64 8, ptr %4) #12
  %13 = load ptr, ptr %2, align 8, !tbaa !42
  %14 = getelementptr inbounds nuw %struct.AVFilterLink, ptr %13, i32 0, i32 0
  %15 = load ptr, ptr %14, align 8, !tbaa !78
  %16 = getelementptr inbounds nuw %struct.AVFilterContext, ptr %15, i32 0, i32 9
  %17 = load ptr, ptr %16, align 8, !tbaa !9
  store ptr %17, ptr %4, align 8, !tbaa !22
  call void @llvm.lifetime.start.p0(i64 8, ptr %5) #12
  %18 = load ptr, ptr %2, align 8, !tbaa !42
  %19 = getelementptr inbounds nuw %struct.AVFilterLink, ptr %18, i32 0, i32 0
  %20 = load ptr, ptr %19, align 8, !tbaa !78
  %21 = getelementptr inbounds nuw %struct.AVFilterContext, ptr %20, i32 0, i32 4
  %22 = load ptr, ptr %21, align 8, !tbaa !41
  %23 = getelementptr inbounds ptr, ptr %22, i64 0
  %24 = load ptr, ptr %23, align 8, !tbaa !42
  store ptr %24, ptr %5, align 8, !tbaa !42
  call void @llvm.lifetime.start.p0(i64 4, ptr %6) #12
  %25 = load ptr, ptr %4, align 8, !tbaa !22
  %26 = getelementptr inbounds nuw %struct.ShowVolumeContext, ptr %25, i32 0, i32 7
  %27 = load i32, ptr %26, align 8, !tbaa !79
  %28 = icmp ne i32 %27, 0
  br i1 %28, label %29, label %55

29:                                               ; preds = %1
  %30 = load ptr, ptr %4, align 8, !tbaa !22
  %31 = getelementptr inbounds nuw %struct.ShowVolumeContext, ptr %30, i32 0, i32 1
  %32 = load i32, ptr %31, align 8, !tbaa !60
  %33 = load ptr, ptr %2, align 8, !tbaa !42
  %34 = getelementptr inbounds nuw %struct.AVFilterLink, ptr %33, i32 0, i32 7
  store i32 %32, ptr %34, align 4, !tbaa !80
  %35 = load ptr, ptr %4, align 8, !tbaa !22
  %36 = getelementptr inbounds nuw %struct.ShowVolumeContext, ptr %35, i32 0, i32 2
  %37 = load i32, ptr %36, align 4, !tbaa !81
  %38 = load ptr, ptr %5, align 8, !tbaa !42
  %39 = getelementptr inbounds nuw %struct.AVFilterLink, ptr %38, i32 0, i32 12
  %40 = getelementptr inbounds nuw %struct.AVChannelLayout, ptr %39, i32 0, i32 1
  %41 = load i32, ptr %40, align 4, !tbaa !58
  %42 = mul nsw i32 %37, %41
  %43 = load ptr, ptr %5, align 8, !tbaa !42
  %44 = getelementptr inbounds nuw %struct.AVFilterLink, ptr %43, i32 0, i32 12
  %45 = getelementptr inbounds nuw %struct.AVChannelLayout, ptr %44, i32 0, i32 1
  %46 = load i32, ptr %45, align 4, !tbaa !58
  %47 = sub nsw i32 %46, 1
  %48 = load ptr, ptr %4, align 8, !tbaa !22
  %49 = getelementptr inbounds nuw %struct.ShowVolumeContext, ptr %48, i32 0, i32 3
  %50 = load i32, ptr %49, align 8, !tbaa !82
  %51 = mul nsw i32 %47, %50
  %52 = add nsw i32 %42, %51
  %53 = load ptr, ptr %2, align 8, !tbaa !42
  %54 = getelementptr inbounds nuw %struct.AVFilterLink, ptr %53, i32 0, i32 6
  store i32 %52, ptr %54, align 8, !tbaa !83
  br label %81

55:                                               ; preds = %1
  %56 = load ptr, ptr %4, align 8, !tbaa !22
  %57 = getelementptr inbounds nuw %struct.ShowVolumeContext, ptr %56, i32 0, i32 1
  %58 = load i32, ptr %57, align 8, !tbaa !60
  %59 = load ptr, ptr %2, align 8, !tbaa !42
  %60 = getelementptr inbounds nuw %struct.AVFilterLink, ptr %59, i32 0, i32 6
  store i32 %58, ptr %60, align 8, !tbaa !83
  %61 = load ptr, ptr %4, align 8, !tbaa !22
  %62 = getelementptr inbounds nuw %struct.ShowVolumeContext, ptr %61, i32 0, i32 2
  %63 = load i32, ptr %62, align 4, !tbaa !81
  %64 = load ptr, ptr %5, align 8, !tbaa !42
  %65 = getelementptr inbounds nuw %struct.AVFilterLink, ptr %64, i32 0, i32 12
  %66 = getelementptr inbounds nuw %struct.AVChannelLayout, ptr %65, i32 0, i32 1
  %67 = load i32, ptr %66, align 4, !tbaa !58
  %68 = mul nsw i32 %63, %67
  %69 = load ptr, ptr %5, align 8, !tbaa !42
  %70 = getelementptr inbounds nuw %struct.AVFilterLink, ptr %69, i32 0, i32 12
  %71 = getelementptr inbounds nuw %struct.AVChannelLayout, ptr %70, i32 0, i32 1
  %72 = load i32, ptr %71, align 4, !tbaa !58
  %73 = sub nsw i32 %72, 1
  %74 = load ptr, ptr %4, align 8, !tbaa !22
  %75 = getelementptr inbounds nuw %struct.ShowVolumeContext, ptr %74, i32 0, i32 3
  %76 = load i32, ptr %75, align 8, !tbaa !82
  %77 = mul nsw i32 %73, %76
  %78 = add nsw i32 %68, %77
  %79 = load ptr, ptr %2, align 8, !tbaa !42
  %80 = getelementptr inbounds nuw %struct.AVFilterLink, ptr %79, i32 0, i32 7
  store i32 %78, ptr %80, align 4, !tbaa !80
  br label %81

81:                                               ; preds = %55, %29
  %82 = load ptr, ptr %2, align 8, !tbaa !42
  %83 = getelementptr inbounds nuw %struct.AVFilterLink, ptr %82, i32 0, i32 8
  %84 = getelementptr inbounds nuw %struct.AVRational, ptr %7, i32 0, i32 0
  store i32 1, ptr %84, align 4, !tbaa !74
  %85 = getelementptr inbounds nuw %struct.AVRational, ptr %7, i32 0, i32 1
  store i32 1, ptr %85, align 4, !tbaa !75
  call void @llvm.memcpy.p0.p0.i64(ptr align 8 %83, ptr align 4 %7, i64 8, i1 false), !tbaa.struct !84
  %86 = load ptr, ptr %3, align 8, !tbaa !76
  %87 = getelementptr inbounds nuw %struct.FilterLink, ptr %86, i32 0, i32 10
  %88 = load ptr, ptr %4, align 8, !tbaa !22
  %89 = getelementptr inbounds nuw %struct.ShowVolumeContext, ptr %88, i32 0, i32 5
  call void @llvm.memcpy.p0.p0.i64(ptr align 8 %87, ptr align 8 %89, i64 8, i1 false), !tbaa.struct !84
  %90 = load ptr, ptr %2, align 8, !tbaa !42
  %91 = getelementptr inbounds nuw %struct.AVFilterLink, ptr %90, i32 0, i32 13
  call void @llvm.lifetime.start.p0(i64 8, ptr %8) #12
  %92 = load ptr, ptr %3, align 8, !tbaa !76
  %93 = getelementptr inbounds nuw %struct.FilterLink, ptr %92, i32 0, i32 10
  %94 = load i64, ptr %93, align 8
  %95 = call i64 @av_inv_q(i64 %94)
  store i64 %95, ptr %8, align 4
  call void @llvm.memcpy.p0.p0.i64(ptr align 8 %91, ptr align 4 %8, i64 8, i1 false), !tbaa.struct !84
  call void @llvm.lifetime.end.p0(i64 8, ptr %8) #12
  store i32 0, ptr %6, align 4, !tbaa !33
  br label %96

96:                                               ; preds = %179, %81
  %97 = load i32, ptr %6, align 4, !tbaa !33
  %98 = load ptr, ptr %5, align 8, !tbaa !42
  %99 = getelementptr inbounds nuw %struct.AVFilterLink, ptr %98, i32 0, i32 12
  %100 = getelementptr inbounds nuw %struct.AVChannelLayout, ptr %99, i32 0, i32 1
  %101 = load i32, ptr %100, align 4, !tbaa !58
  %102 = icmp slt i32 %97, %101
  br i1 %102, label %103, label %182

103:                                              ; preds = %96
  call void @llvm.lifetime.start.p0(i64 4, ptr %9) #12
  store i32 0, ptr %9, align 4, !tbaa !33
  br label %104

104:                                              ; preds = %175, %103
  %105 = load i32, ptr %9, align 4, !tbaa !33
  %106 = load ptr, ptr %4, align 8, !tbaa !22
  %107 = getelementptr inbounds nuw %struct.ShowVolumeContext, ptr %106, i32 0, i32 1
  %108 = load i32, ptr %107, align 8, !tbaa !60
  %109 = icmp slt i32 %105, %108
  br i1 %109, label %110, label %178

110:                                              ; preds = %104
  call void @llvm.lifetime.start.p0(i64 4, ptr %10) #12
  %111 = load i32, ptr %9, align 4, !tbaa !33
  %112 = sitofp i32 %111 to float
  %113 = load ptr, ptr %4, align 8, !tbaa !22
  %114 = getelementptr inbounds nuw %struct.ShowVolumeContext, ptr %113, i32 0, i32 1
  %115 = load i32, ptr %114, align 8, !tbaa !60
  %116 = sub nsw i32 %115, 1
  %117 = sitofp i32 %116 to float
  %118 = fdiv nsz float %112, %117
  store float %118, ptr %10, align 4, !tbaa !70
  %119 = load float, ptr %10, align 4, !tbaa !70
  %120 = fpext nsz float %119 to double
  %121 = load ptr, ptr %4, align 8, !tbaa !22
  %122 = getelementptr inbounds nuw %struct.ShowVolumeContext, ptr %121, i32 0, i32 16
  %123 = load ptr, ptr %122, align 8, !tbaa !59
  %124 = load i32, ptr %6, align 4, !tbaa !33
  %125 = mul nsw i32 %124, 3
  %126 = add nsw i32 %125, 2
  %127 = sext i32 %126 to i64
  %128 = getelementptr inbounds double, ptr %123, i64 %127
  store double %120, ptr %128, align 8, !tbaa !85
  %129 = load float, ptr %10, align 4, !tbaa !70
  %130 = fpext nsz float %129 to double
  %131 = call nsz double @llvm.log10.f64(double %130)
  %132 = fmul nsz double 2.000000e+01, %131
  %133 = load ptr, ptr %4, align 8, !tbaa !22
  %134 = getelementptr inbounds nuw %struct.ShowVolumeContext, ptr %133, i32 0, i32 16
  %135 = load ptr, ptr %134, align 8, !tbaa !59
  %136 = load i32, ptr %6, align 4, !tbaa !33
  %137 = mul nsw i32 %136, 3
  %138 = add nsw i32 %137, 0
  %139 = sext i32 %138 to i64
  %140 = getelementptr inbounds double, ptr %135, i64 %139
  store double %132, ptr %140, align 8, !tbaa !85
  %141 = load i32, ptr %6, align 4, !tbaa !33
  %142 = sitofp i32 %141 to double
  %143 = load ptr, ptr %4, align 8, !tbaa !22
  %144 = getelementptr inbounds nuw %struct.ShowVolumeContext, ptr %143, i32 0, i32 16
  %145 = load ptr, ptr %144, align 8, !tbaa !59
  %146 = load i32, ptr %6, align 4, !tbaa !33
  %147 = mul nsw i32 %146, 3
  %148 = add nsw i32 %147, 1
  %149 = sext i32 %148 to i64
  %150 = getelementptr inbounds double, ptr %145, i64 %149
  store double %142, ptr %150, align 8, !tbaa !85
  %151 = load ptr, ptr %4, align 8, !tbaa !22
  %152 = getelementptr inbounds nuw %struct.ShowVolumeContext, ptr %151, i32 0, i32 13
  %153 = load ptr, ptr %152, align 8, !tbaa !34
  %154 = load ptr, ptr %4, align 8, !tbaa !22
  %155 = getelementptr inbounds nuw %struct.ShowVolumeContext, ptr %154, i32 0, i32 16
  %156 = load ptr, ptr %155, align 8, !tbaa !59
  %157 = load i32, ptr %6, align 4, !tbaa !33
  %158 = mul nsw i32 %157, 3
  %159 = sext i32 %158 to i64
  %160 = getelementptr inbounds double, ptr %156, i64 %159
  %161 = call nsz double @av_expr_eval(ptr noundef %153, ptr noundef %160, ptr noundef null)
  %162 = fptoui double %161 to i32
  %163 = load ptr, ptr %4, align 8, !tbaa !22
  %164 = getelementptr inbounds nuw %struct.ShowVolumeContext, ptr %163, i32 0, i32 17
  %165 = load ptr, ptr %164, align 8, !tbaa !61
  %166 = load i32, ptr %6, align 4, !tbaa !33
  %167 = load ptr, ptr %4, align 8, !tbaa !22
  %168 = getelementptr inbounds nuw %struct.ShowVolumeContext, ptr %167, i32 0, i32 1
  %169 = load i32, ptr %168, align 8, !tbaa !60
  %170 = mul nsw i32 %166, %169
  %171 = load i32, ptr %9, align 4, !tbaa !33
  %172 = add nsw i32 %170, %171
  %173 = sext i32 %172 to i64
  %174 = getelementptr inbounds i32, ptr %165, i64 %173
  store i32 %162, ptr %174, align 4, !tbaa !33
  call void @llvm.lifetime.end.p0(i64 4, ptr %10) #12
  br label %175

175:                                              ; preds = %110
  %176 = load i32, ptr %9, align 4, !tbaa !33
  %177 = add nsw i32 %176, 1
  store i32 %177, ptr %9, align 4, !tbaa !33
  br label %104, !llvm.loop !86

178:                                              ; preds = %104
  call void @llvm.lifetime.end.p0(i64 4, ptr %9) #12
  br label %179

179:                                              ; preds = %178
  %180 = load i32, ptr %6, align 4, !tbaa !33
  %181 = add nsw i32 %180, 1
  store i32 %181, ptr %6, align 4, !tbaa !33
  br label %96, !llvm.loop !87

182:                                              ; preds = %96
  call void @llvm.lifetime.end.p0(i64 4, ptr %6) #12
  call void @llvm.lifetime.end.p0(i64 8, ptr %5) #12
  call void @llvm.lifetime.end.p0(i64 8, ptr %4) #12
  call void @llvm.lifetime.end.p0(i64 8, ptr %3) #12
  ret i32 0
}