; Function Attrs: nounwind uwtable
define internal noundef i32 @config_output(ptr noundef captures(none) initializes((40, 56), (96, 104), (264, 272)) %0) #1 {
  %2 = load ptr, ptr %0, align 8, !tbaa !112
  %3 = getelementptr inbounds nuw i8, ptr %2, i64 72
  %4 = load ptr, ptr %3, align 8, !tbaa !4
  %5 = getelementptr inbounds nuw i8, ptr %2, i64 32
  %6 = load ptr, ptr %5, align 8, !tbaa !32
  %7 = load ptr, ptr %6, align 8, !tbaa !33
  %8 = getelementptr inbounds nuw i8, ptr %4, i64 48
  %9 = load i32, ptr %8, align 8, !tbaa !70
  %.not = icmp eq i32 %9, 0
  %10 = getelementptr inbounds nuw i8, ptr %4, i64 8
  %11 = load i32, ptr %10, align 8, !tbaa !74
  %12 = getelementptr inbounds nuw i8, ptr %4, i64 12
  %13 = load i32, ptr %12, align 4, !tbaa !82
  %14 = getelementptr inbounds nuw i8, ptr %7, i64 76
  %15 = load i32, ptr %14, align 4, !tbaa !71
  %16 = mul nsw i32 %15, %13
  %17 = add nsw i32 %15, -1
  %18 = getelementptr inbounds nuw i8, ptr %4, i64 16
  %19 = load i32, ptr %18, align 8, !tbaa !83
  %20 = mul nsw i32 %17, %19
  %21 = add nsw i32 %20, %16
  %. = select i1 %.not, i32 %11, i32 %21
  %.55 = select i1 %.not, i32 %21, i32 %11
  %22 = getelementptr inbounds nuw i8, ptr %0, i64 40
  store i32 %., ptr %22, align 8, !tbaa !54
  %23 = getelementptr inbounds nuw i8, ptr %0, i64 44
  store i32 %.55, ptr %23, align 4, !tbaa !56
  %24 = getelementptr inbounds nuw i8, ptr %0, i64 48
  store i32 1, ptr %24, align 8, !tbaa !59
  %.sroa.2.0..sroa_idx = getelementptr inbounds nuw i8, ptr %0, i64 52
  store i32 1, ptr %.sroa.2.0..sroa_idx, align 4, !tbaa !59
  %25 = getelementptr inbounds nuw i8, ptr %0, i64 264
  %26 = getelementptr inbounds nuw i8, ptr %4, i64 32
  %27 = load i64, ptr %26, align 8
  store i64 %27, ptr %25, align 8
  %28 = getelementptr inbounds nuw i8, ptr %0, i64 96
  %.sroa.01.0.insert.insert.i = tail call i64 @llvm.fshl.i64(i64 %27, i64 %27, i64 32)
  store i64 %.sroa.01.0.insert.insert.i, ptr %28, align 8
  %29 = getelementptr inbounds nuw i8, ptr %7, i64 76
  %30 = load i32, ptr %29, align 4, !tbaa !71
  %31 = icmp sgt i32 %30, 0
  br i1 %31, label %.preheader.lr.ph, label %._crit_edge51

.preheader.lr.ph:                                 ; preds = %1
  %32 = getelementptr inbounds nuw i8, ptr %4, i64 8
  %33 = getelementptr inbounds nuw i8, ptr %4, i64 96
  %34 = getelementptr inbounds nuw i8, ptr %4, i64 80
  %35 = getelementptr inbounds nuw i8, ptr %4, i64 104
  %36 = load i32, ptr %32, align 8, !tbaa !74
  %37 = icmp sgt i32 %36, 0
  br i1 %37, label %.preheader, label %._crit_edge51

.preheader:                                       ; preds = %.preheader.lr.ph, %._crit_edge
  %38 = phi i32 [ %68, %._crit_edge ], [ %30, %.preheader.lr.ph ]
  %39 = phi i32 [ %69, %._crit_edge ], [ %36, %.preheader.lr.ph ]
  %indvars.iv = phi i64 [ %indvars.iv.next, %._crit_edge ], [ 0, %.preheader.lr.ph ]
  %40 = icmp sgt i32 %39, 0
  br i1 %40, label %.lr.ph, label %._crit_edge

.lr.ph:                                           ; preds = %.preheader
  %41 = trunc nuw nsw i64 %indvars.iv to i32
  %42 = uitofp nneg i32 %41 to double
  %.idx = mul nuw nsw i64 %indvars.iv, 24
  br label %43

43:                                               ; preds = %.lr.ph, %43
  %44 = phi i32 [ %39, %.lr.ph ], [ %66, %43 ]
  %.04749 = phi i32 [ 0, %.lr.ph ], [ %65, %43 ]
  %45 = uitofp nneg i32 %.04749 to float
  %46 = add nsw i32 %44, -1
  %47 = sitofp i32 %46 to float
  %48 = fdiv nsz float %45, %47
  %49 = fpext nsz float %48 to double
  %50 = load ptr, ptr %33, align 8, !tbaa !79
  %51 = getelementptr inbounds nuw i8, ptr %50, i64 %.idx
  %52 = getelementptr inbounds nuw i8, ptr %51, i64 16
  store double %49, ptr %52, align 8, !tbaa !80
  %53 = tail call nsz double @llvm.log10.f64(double %49)
  %54 = fmul nsz double %53, 2.000000e+01
  store double %54, ptr %51, align 8, !tbaa !80
  %55 = getelementptr inbounds nuw i8, ptr %51, i64 8
  store double %42, ptr %55, align 8, !tbaa !80
  %56 = load ptr, ptr %34, align 8, !tbaa !29
  %57 = tail call nsz double @av_expr_eval(ptr noundef %56, ptr noundef nonnull %51, ptr noundef null) #10
  %58 = fptoui double %57 to i32
  %59 = load ptr, ptr %35, align 8, !tbaa !73
  %60 = load i32, ptr %32, align 8, !tbaa !74
  %61 = mul nsw i32 %60, %41
  %62 = add nsw i32 %61, %.04749
  %63 = sext i32 %62 to i64
  %64 = getelementptr inbounds i32, ptr %59, i64 %63
  store i32 %58, ptr %64, align 4, !tbaa !59
  %65 = add nuw nsw i32 %.04749, 1
  %66 = load i32, ptr %32, align 8, !tbaa !74
  %67 = icmp slt i32 %65, %66
  br i1 %67, label %43, label %._crit_edge.loopexit, !llvm.loop !113

._crit_edge.loopexit:                             ; preds = %43
  %.pre = load i32, ptr %29, align 4, !tbaa !71
  br label %._crit_edge

._crit_edge:                                      ; preds = %._crit_edge.loopexit, %.preheader
  %68 = phi i32 [ %.pre, %._crit_edge.loopexit ], [ %38, %.preheader ]
  %69 = phi i32 [ %66, %._crit_edge.loopexit ], [ %39, %.preheader ]
  %indvars.iv.next = add nuw nsw i64 %indvars.iv, 1
  %70 = sext i32 %68 to i64
  %71 = icmp slt i64 %indvars.iv.next, %70
  br i1 %71, label %.preheader, label %._crit_edge51, !llvm.loop !114

._crit_edge51:                                    ; preds = %._crit_edge, %.preheader.lr.ph, %1
  ret i32 0
}